target datalayout = "e-m:e-p270:32:32-p271:32:32-p272:64:64-i64:64-i128:128-f80:128-n8:16:32:64-S128"
target triple = "x86_64-pc-linux-gnu"

%"class.ncnn::DeformableConv2D_x86_avx" = type { %"class.ncnn::DeformableConv2D", ptr, %"class.ncnn::Mat", ptr }
%"class.ncnn::DeformableConv2D" = type { %"class.ncnn::Layer", i32, i32, i32, i32, i32, i32, i32, i32, i32, i32, i32, i32, i32, i32, %"class.ncnn::Mat", %"class.ncnn::Mat", %"class.ncnn::Mat" }
%"class.ncnn::Layer" = type { ptr, i8, i8, i8, i8, i8, i8, i8, i8, i8, i8, i8, i8, i8, i8, i8, i8, i8, i8, i8, i8, i32, ptr, i32, %"class.std::__cxx11::basic_string", %"class.std::__cxx11::basic_string", %"class.std::vector", %"class.std::vector", %"class.std::vector.3", %"class.std::vector.3" }
%"class.std::__cxx11::basic_string" = type { %"struct.std::__cxx11::basic_string<char>::_Alloc_hider", i64, %union.anon }
%"struct.std::__cxx11::basic_string<char>::_Alloc_hider" = type { ptr }
%union.anon = type { i64, [8 x i8] }
%"class.std::vector" = type { %"struct.std::_Vector_base" }
%"struct.std::_Vector_base" = type { %"struct.std::_Vector_base<int, std::allocator<int>>::_Vector_impl" }
%"struct.std::_Vector_base<int, std::allocator<int>>::_Vector_impl" = type { %"struct.std::_Vector_base<int, std::allocator<int>>::_Vector_impl_data" }
%"struct.std::_Vector_base<int, std::allocator<int>>::_Vector_impl_data" = type { ptr, ptr, ptr }
%"class.std::vector.3" = type { %"struct.std::_Vector_base.4" }
%"struct.std::_Vector_base.4" = type { %"struct.std::_Vector_base<ncnn::Mat, std::allocator<ncnn::Mat>>::_Vector_impl" }
%"struct.std::_Vector_base<ncnn::Mat, std::allocator<ncnn::Mat>>::_Vector_impl" = type { %"struct.std::_Vector_base<ncnn::Mat, std::allocator<ncnn::Mat>>::_Vector_impl_data" }
%"struct.std::_Vector_base<ncnn::Mat, std::allocator<ncnn::Mat>>::_Vector_impl_data" = type { ptr, ptr, ptr }
%"class.ncnn::Mat" = type { ptr, ptr, i64, i32, ptr, i32, i32, i32, i32, i32, i64 }

; Function Attrs: mustprogress uwtable
define hidden noundef i32 @_ZN4ncnn24DeformableConv2D_x86_avx16destroy_pipelineERKNS_6OptionE(ptr noundef nonnull align 8 dereferenceable(568) %0, ptr noundef nonnull align 8 dereferenceable(64) %1) unnamed_addr #2 align 2 {
  %3 = alloca ptr, align 8
  %4 = alloca ptr, align 8
  store ptr %0, ptr %3, align 8, !tbaa !4
  store ptr %1, ptr %4, align 8, !tbaa !11
  %5 = load ptr, ptr %3, align 8
  %6 = getelementptr inbounds nuw %"class.ncnn::DeformableConv2D_x86_avx", ptr %5, i32 0, i32 1
  %7 = load ptr, ptr %6, align 8, !tbaa !34
  %8 = icmp ne ptr %7, null
  br i1 %8, label %9, label %26

9:                                                ; preds = %2
  %10 = getelementptr inbounds nuw %"class.ncnn::DeformableConv2D_x86_avx", ptr %5, i32 0, i32 1
  %11 = load ptr, ptr %10, align 8, !tbaa !34
  %12 = load ptr, ptr %4, align 8, !tbaa !11
  %13 = load ptr, ptr %11, align 8, !tbaa !9
  %14 = getelementptr inbounds ptr, ptr %13, i64 5
  %15 = load ptr, ptr %14, align 8
  %16 = call noundef i32 %15(ptr noundef nonnull align 8 dereferenceable(208) %11, ptr noundef nonnull align 8 dereferenceable(64) %12)
  %17 = getelementptr inbounds nuw %"class.ncnn::DeformableConv2D_x86_avx", ptr %5, i32 0, i32 1
  %18 = load ptr, ptr %17, align 8, !tbaa !34
  %19 = icmp eq ptr %18, null
  br i1 %19, label %24, label %20

20:                                               ; preds = %9
  %21 = load ptr, ptr %18, align 8, !tbaa !9
  %22 = getelementptr inbounds ptr, ptr %21, i64 1
  %23 = load ptr, ptr %22, align 8
  call void %23(ptr noundef nonnull align 8 dereferenceable(208) %18) #10
  br label %24

24:                                               ; preds = %20, %9
  %25 = getelementptr inbounds nuw %"class.ncnn::DeformableConv2D_x86_avx", ptr %5, i32 0, i32 1
  store ptr null, ptr %25, align 8, !tbaa !34
  br label %26

26:                                               ; preds = %24, %2
  %27 = getelementptr inbounds nuw %"class.ncnn::DeformableConv2D_x86_avx", ptr %5, i32 0, i32 3
  %28 = load ptr, ptr %27, align 8, !tbaa !47
  %29 = icmp ne ptr %28, null
  br i1 %29, label %30, label %47

30:                                               ; preds = %26
  %31 = getelementptr inbounds nuw %"class.ncnn::DeformableConv2D_x86_avx", ptr %5, i32 0, i32 3
  %32 = load ptr, ptr %31, align 8, !tbaa !47
  %33 = load ptr, ptr %4, align 8, !tbaa !11
  %34 = load ptr, ptr %32, align 8, !tbaa !9
  %35 = getelementptr inbounds ptr, ptr %34, i64 5
  %36 = load ptr, ptr %35, align 8
  %37 = call noundef i32 %36(ptr noundef nonnull align 8 dereferenceable(208) %32, ptr noundef nonnull align 8 dereferenceable(64) %33)
  %38 = getelementptr inbounds nuw %"class.ncnn::DeformableConv2D_x86_avx", ptr %5, i32 0, i32 3
  %39 = load ptr, ptr %38, align 8, !tbaa !47
  %40 = icmp eq ptr %39, null
  br i1 %40, label %45, label %41

41:                                               ; preds = %30
  %42 = load ptr, ptr %39, align 8, !tbaa !9
  %43 = getelementptr inbounds ptr, ptr %42, i64 1
  %44 = load ptr, ptr %43, align 8
  call void %44(ptr noundef nonnull align 8 dereferenceable(208) %39) #10
  br label %45

45:                                               ; preds = %41, %30
  %46 = getelementptr inbounds nuw %"class.ncnn::DeformableConv2D_x86_avx", ptr %5, i32 0, i32 3
  store ptr null, ptr %46, align 8, !tbaa !47
  br label %47

47:                                               ; preds = %45, %26
  ret i32 0
}